Certificate:
    Data:
        Version: 3 (0x2)
        Serial Number: 3 (0x3)
        Signature Algorithm: sha256WithRSAEncryption
        Issuer: C=CN, ST=ZheJiang, L=HangZhou, O=ZJUT, OU=changeme, CN=OpenVPV-CA/name=changeme/emailAddress=934593477@qq.com
        Validity
            Not Before: Jul  9 02:59:50 2021 GMT
            Not After : Jul  7 02:59:50 2031 GMT
        Subject: C=CN, ST=ZheJiang, L=HangZhou, O=ZJUT, OU=changeme, CN=client1/name=changeme/emailAddress=934593477@qq.com
        Subject Public Key Info:
            Public Key Algorithm: rsaEncryption
                RSA Public-Key: (4096 bit)
                Modulus:
                    00:c3:78:60:ad:36:71:15:95:76:f3:d3:bc:e4:b3:
                    0b:f4:9b:cd:8b:8e:92:0f:95:d2:f3:22:c8:98:0c:
                    1e:62:be:0e:64:84:83:db:90:34:1f:f5:9a:d8:d6:
                    1d:b8:54:e9:6e:7e:27:4d:96:69:b8:85:c1:ff:4c:
                    36:68:bd:88:5e:db:b3:7e:32:e0:69:46:ae:3f:02:
                    34:fe:00:05:8e:f1:86:a5:6f:05:c8:01:71:88:61:
                    ce:69:8d:cb:c8:80:94:ef:72:76:98:37:89:9f:a7:
                    1c:4a:75:f6:ec:6a:ca:0a:b7:88:96:08:f7:6d:37:
                    26:ae:e3:77:2a:a8:36:24:a5:5d:27:45:74:58:4d:
                    89:80:f4:b2:01:b8:cf:11:f1:8e:97:29:ee:de:42:
                    c4:c5:d9:69:ad:89:b0:cd:54:44:a5:eb:3b:3a:56:
                    32:6f:57:db:bd:89:95:01:02:68:71:aa:2e:c6:30:
                    7f:2a:43:72:1d:bc:9a:48:ba:ef:a3:cb:1d:71:fe:
                    23:69:e0:fe:81:77:fc:f4:a7:92:ea:09:25:29:02:
                    c7:6a:71:52:5a:29:67:70:90:3c:61:75:ae:14:b5:
                    4f:07:12:5a:76:98:66:5c:bb:5e:3d:81:a4:a2:81:
                    eb:b1:9d:e7:cb:35:5f:0c:91:6d:2e:d2:cc:7d:71:
                    c3:05:f5:a4:19:a1:30:40:f3:0e:a0:ae:dd:9b:04:
                    42:7f:2d:ef:90:e2:b6:1a:3e:0b:91:7b:b2:87:30:
                    f1:ff:c5:7a:67:ad:ef:d0:99:2a:f0:22:45:a8:8f:
                    ea:a1:62:cf:2f:4b:92:e9:cb:8f:ba:92:b0:b1:e3:
                    28:fb:99:18:9b:c8:7d:6d:7a:cc:a5:e2:d6:1d:8f:
                    7f:24:c6:46:00:64:d9:74:2c:4d:b9:65:70:22:a6:
                    81:ca:5f:ec:0b:35:00:89:52:3b:2e:29:f9:0d:14:
                    a8:b7:9a:0e:ed:60:75:68:53:c3:ae:35:50:b6:32:
                    aa:50:95:e0:6c:6b:40:13:ca:e4:d1:d5:61:6f:c8:
                    c4:1e:24:ae:21:2c:45:cd:a3:1c:24:dc:21:b2:4d:
                    66:50:8a:fa:a4:43:e4:8d:3f:ff:61:d5:66:5e:93:
                    6e:bb:fa:82:30:de:9d:be:71:92:4f:65:eb:e1:0b:
                    44:a4:ce:91:eb:e8:b8:7c:e4:e9:f5:63:b4:2b:fa:
                    25:bd:4c:e5:ab:62:3a:71:a5:46:e7:6e:7b:d2:9e:
                    fe:12:af:c8:93:64:25:4a:83:d4:48:f5:96:1a:b3:
                    3a:e9:df:2c:e8:24:01:3d:a6:89:1a:3f:d3:ce:4b:
                    0c:96:9a:88:88:f4:7c:e6:45:8a:cb:5b:8c:b4:51:
                    7c:b9:df
                Exponent: 65537 (0x10001)
        X509v3 extensions:
            X509v3 Basic Constraints: 
                CA:FALSE
            Netscape Comment: 
                Easy-RSA Generated Certificate
            X509v3 Subject Key Identifier: 
                11:EC:CB:81:72:40:E4:37:88:DB:CD:17:AC:34:77:2D:83:90:82:8F
            X509v3 Authority Key Identifier: 
                keyid:05:52:AF:DA:A2:CC:A2:62:2D:56:65:8A:72:6B:30:9D:C7:19:4A:70
                DirName:/C=CN/ST=ZheJiang/L=HangZhou/O=ZJUT/OU=changeme/CN=OpenVPV-CA/name=changeme/emailAddress=934593477@qq.com
                serial:27:FD:3D:AB:AA:6E:DC:EA:4B:2B:50:5E:E5:CA:15:DB:DC:36:E0:BA

            X509v3 Extended Key Usage: 
                TLS Web Client Authentication
            X509v3 Key Usage: 
                Digital Signature
    Signature Algorithm: sha256WithRSAEncryption
         6d:30:27:aa:a8:b7:35:3c:95:e3:c4:7c:e6:48:2b:85:7e:f2:
         36:a3:ac:36:84:52:45:2e:44:d7:61:19:39:33:03:18:7c:6a:
         74:06:07:79:3b:b4:36:4f:b0:35:66:7a:47:2d:2b:d7:2c:c4:
         b6:71:4b:d1:32:e5:87:6c:68:cb:e2:11:6e:40:94:9b:52:13:
         5b:cf:c9:1e:63:31:23:88:9f:87:56:98:8f:dd:a0:93:6e:c3:
         16:e4:31:72:73:5b:76:11:fd:bc:d8:80:4f:37:e9:ee:ff:3d:
         dd:52:04:d5:a4:24:09:aa:a6:0c:a9:26:ea:67:03:54:51:d6:
         e4:68:97:15:97:38:47:5e:05:59:c2:6f:e4:fe:45:56:14:66:
         56:b1:0e:4a:a7:2a:a6:b1:ed:57:47:56:5c:9a:2b:b2:76:84:
         67:7e:74:e3:51:99:81:48:ae:df:38:43:86:ab:64:67:d8:54:
         4e:41:0e:b9:db:c9:60:9d:29:e1:ee:76:e3:59:b7:ec:7e:14:
         6c:b2:4d:04:6e:ec:f4:bd:d9:a0:74:e0:a1:8f:e8:fc:6a:67:
         00:bf:e2:8a:69:d5:58:57:ca:49:1a:14:e0:8a:fb:11:63:0e:
         a4:30:fb:7a:bf:14:72:ef:e3:15:ba:03:23:6d:5f:6e:bc:ed:
         b6:6f:e3:ad:2f:4d:24:47:d0:d9:e8:cc:ff:a8:12:ef:3f:b9:
         9a:fc:18:33:18:06:46:85:c0:7d:56:ec:39:60:91:03:0c:d6:
         76:ff:20:3e:bd:ec:83:53:4f:66:74:cc:77:30:51:ae:ed:96:
         b7:0f:fd:19:37:11:a6:6e:7d:e0:2a:81:06:91:78:99:6d:0d:
         50:53:bd:fd:6f:98:83:96:ca:70:c3:57:c7:4d:e9:a5:4a:af:
         21:85:de:28:f4:14:cf:1b:43:44:ac:7b:7c:09:53:85:26:d1:
         99:98:e0:fc:7f:4d:ae:7d:3f:d5:d4:86:e7:fc:43:dd:c7:db:
         9e:65:d5:c1:fd:d9:d9:12:9c:fd:1f:13:cb:64:65:8b:9c:53:
         b3:fd:81:49:bb:f2:53:4a:f2:f1:45:c7:35:5c:51:37:b9:d7:
         ae:e2:97:36:32:24:27:92:88:95:d5:07:7a:fe:6d:a9:de:ad:
         9b:1f:8b:6c:9b:3e:13:c2:45:51:5f:2d:0c:42:81:e0:31:0c:
         f1:1b:97:c6:77:a5:71:a4:c8:a5:9e:05:54:e2:ae:34:0e:20:
         f8:9e:8e:7a:74:5b:8a:11:3a:85:9c:13:82:4e:c7:aa:4d:9d:
         21:7b:3b:e5:6b:66:42:92:ae:e6:24:05:2a:ec:f5:97:da:13:
         2c:f5:bd:3f:b1:b3:00:f2
-----BEGIN CERTIFICATE-----
MIIHGDCCBQCgAwIBAgIBAzANBgkqhkiG9w0BAQsFADCBnjELMAkGA1UEBhMCQ04x
ETAPBgNVBAgTCFpoZUppYW5nMREwDwYDVQQHEwhIYW5nWmhvdTENMAsGA1UEChME
WkpVVDERMA8GA1UECxMIY2hhbmdlbWUxEzARBgNVBAMTCk9wZW5WUFYtQ0ExETAP
BgNVBCkTCGNoYW5nZW1lMR8wHQYJKoZIhvcNAQkBFhA5MzQ1OTM0NzdAcXEuY29t
MB4XDTIxMDcwOTAyNTk1MFoXDTMxMDcwNzAyNTk1MFowgZsxCzAJBgNVBAYTAkNO
MREwDwYDVQQIEwhaaGVKaWFuZzERMA8GA1UEBxMISGFuZ1pob3UxDTALBgNVBAoT
BFpKVVQxETAPBgNVBAsTCGNoYW5nZW1lMRAwDgYDVQQDEwdjbGllbnQxMREwDwYD
VQQpEwhjaGFuZ2VtZTEfMB0GCSqGSIb3DQEJARYQOTM0NTkzNDc3QHFxLmNvbTCC
AiIwDQYJKoZIhvcNAQEBBQADggIPADCCAgoCggIBAMN4YK02cRWVdvPTvOSzC/Sb
zYuOkg+V0vMiyJgMHmK+DmSEg9uQNB/1mtjWHbhU6W5+J02WabiFwf9MNmi9iF7b
s34y4GlGrj8CNP4ABY7xhqVvBcgBcYhhzmmNy8iAlO9ydpg3iZ+nHEp19uxqygq3
iJYI9203Jq7jdyqoNiSlXSdFdFhNiYD0sgG4zxHxjpcp7t5CxMXZaa2JsM1URKXr
OzpWMm9X272JlQECaHGqLsYwfypDch28mki676PLHXH+I2ng/oF3/PSnkuoJJSkC
x2pxUlopZ3CQPGF1rhS1TwcSWnaYZly7Xj2BpKKB67Gd58s1XwyRbS7SzH1xwwX1
pBmhMEDzDqCu3ZsEQn8t75Ditho+C5F7socw8f/Femet79CZKvAiRaiP6qFizy9L
kunLj7qSsLHjKPuZGJvIfW16zKXi1h2PfyTGRgBk2XQsTbllcCKmgcpf7As1AIlS
Oy4p+Q0UqLeaDu1gdWhTw641ULYyqlCV4GxrQBPK5NHVYW/IxB4kriEsRc2jHCTc
IbJNZlCK+qRD5I0//2HVZl6Tbrv6gjDenb5xkk9l6+ELRKTOkevouHzk6fVjtCv6
Jb1M5atiOnGlRudue9Ke/hKvyJNkJUqD1Ej1lhqzOunfLOgkAT2miRo/085LDJaa
iIj0fOZFistbjLRRfLnfAgMBAAGjggFgMIIBXDAJBgNVHRMEAjAAMC0GCWCGSAGG
+EIBDQQgFh5FYXN5LVJTQSBHZW5lcmF0ZWQgQ2VydGlmaWNhdGUwHQYDVR0OBBYE
FBHsy4FyQOQ3iNvNF6w0dy2DkIKPMIHeBgNVHSMEgdYwgdOAFAVSr9qizKJiLVZl
inJrMJ3HGUpwoYGkpIGhMIGeMQswCQYDVQQGEwJDTjERMA8GA1UECBMIWmhlSmlh
bmcxETAPBgNVBAcTCEhhbmdaaG91MQ0wCwYDVQQKEwRaSlVUMREwDwYDVQQLEwhj
aGFuZ2VtZTETMBEGA1UEAxMKT3BlblZQVi1DQTERMA8GA1UEKRMIY2hhbmdlbWUx
HzAdBgkqhkiG9w0BCQEWEDkzNDU5MzQ3N0BxcS5jb22CFCf9PauqbtzqSytQXuXK
FdvcNuC6MBMGA1UdJQQMMAoGCCsGAQUFBwMCMAsGA1UdDwQEAwIHgDANBgkqhkiG
9w0BAQsFAAOCAgEAbTAnqqi3NTyV48R85kgrhX7yNqOsNoRSRS5E12EZOTMDGHxq
dAYHeTu0Nk+wNWZ6Ry0r1yzEtnFL0TLlh2xoy+IRbkCUm1ITW8/JHmMxI4ifh1aY
j92gk27DFuQxcnNbdhH9vNiATzfp7v893VIE1aQkCaqmDKkm6mcDVFHW5GiXFZc4
R14FWcJv5P5FVhRmVrEOSqcqprHtV0dWXJorsnaEZ35041GZgUiu3zhDhqtkZ9hU
TkEOudvJYJ0p4e5241m37H4UbLJNBG7s9L3ZoHTgoY/o/GpnAL/iimnVWFfKSRoU
4Ir7EWMOpDD7er8Ucu/jFboDI21fbrzttm/jrS9NJEfQ2ejM/6gS7z+5mvwYMxgG
RoXAfVbsOWCRAwzWdv8gPr3sg1NPZnTMdzBRru2Wtw/9GTcRpm594CqBBpF4mW0N
UFO9/W+Yg5bKcMNXx03ppUqvIYXeKPQUzxtDRKx7fAlThSbRmZjg/H9Nrn0/1dSG
5/xD3cfbnmXVwf3Z2RKc/R8Ty2Rli5xTs/2BSbvyU0ry8UXHNVxRN7nXruKXNjIk
J5KIldUHev5tqd6tmx+LbJs+E8JFUV8tDEKB4DEM8RuXxnelcaTIpZ4FVOKuNA4g
+J6OenRbihE6hZwTgk7Hqk2dIXs75WtmQpKu5iQFKuz1l9oTLPW9P7GzAPI=
-----END CERTIFICATE-----
