Certificate:
    Data:
        Version: 3 (0x2)
        Serial Number:
            3c:58:9b:95:24:12:83:15:67:96:55:d7:33:2c:99:32
        Signature Algorithm: ecdsa-with-SHA256
        Issuer: C=CN, ST=ZheJiang, L=HangZhou, O=Zjut, OU=My Organizational Unit, CN=mydserver/emailAddress=867624550@qq.com
        Validity
            Not Before: Mar 28 11:59:50 2022 GMT
            Not After : Jun 30 11:59:50 2024 GMT
        Subject: C=CN, ST=ZheJiang, L=HangZhou, O=Zjut, OU=My Organizational Unit, CN=mydclient/emailAddress=867624550@qq.com
        Subject Public Key Info:
            Public Key Algorithm: id-ecPublicKey
                Public-Key: (256 bit)
                pub:
                    04:98:7b:cc:20:2f:67:65:d3:51:c3:a7:ce:02:ce:
                    ed:4d:1b:6c:51:70:c4:b5:1d:b4:9a:ba:8f:d0:94:
                    c8:45:30:8f:a6:f0:61:56:3d:bc:1a:d9:df:55:a8:
                    b8:c7:5e:9b:6b:2e:25:9c:15:22:dd:ce:c5:37:f2:
                    e6:ed:dc:69:d6
                ASN1 OID: prime256v1
                NIST CURVE: P-256
        X509v3 extensions:
            X509v3 Basic Constraints: 
                CA:FALSE
            X509v3 Subject Key Identifier: 
                10:35:7E:8E:56:EC:23:9A:5F:0C:AB:27:07:CF:0F:22:56:9E:10:BC
            X509v3 Authority Key Identifier: 
                keyid:F0:CB:35:53:55:D0:60:BA:1F:E4:02:2D:4C:9E:E3:DE:10:70:E9:B0
                DirName:/C=CN/ST=ZheJiang/L=HangZhou/O=Zjut/OU=My Organizational Unit/CN=mydserver/emailAddress=867624550@qq.com
                serial:35:08:69:0C:CE:CC:DA:0B:B7:0F:9D:EA:46:E3:FC:E0:5F:18:EF:4E

            X509v3 Extended Key Usage: 
                TLS Web Client Authentication
            X509v3 Key Usage: 
                Digital Signature
    Signature Algorithm: ecdsa-with-SHA256
         30:46:02:21:00:8c:0d:f4:c2:2c:91:e0:da:09:23:c0:a9:bd:
         ec:1e:89:37:04:77:b9:8e:26:9e:a4:aa:d3:17:5c:ee:63:0d:
         ba:02:21:00:80:3e:b2:a0:8a:d7:72:01:8b:e8:e5:d7:b8:c1:
         0e:d1:5d:08:93:e5:60:10:8d:2c:cf:d4:8e:35:81:a0:b9:ba
-----BEGIN CERTIFICATE-----
MIIDXjCCAwOgAwIBAgIQPFiblSQSgxVnllXXMyyZMjAKBggqhkjOPQQDAjCBmDEL
MAkGA1UEBhMCQ04xETAPBgNVBAgMCFpoZUppYW5nMREwDwYDVQQHDAhIYW5nWmhv
dTENMAsGA1UECgwEWmp1dDEfMB0GA1UECwwWTXkgT3JnYW5pemF0aW9uYWwgVW5p
dDESMBAGA1UEAwwJbXlkc2VydmVyMR8wHQYJKoZIhvcNAQkBFhA4Njc2MjQ1NTBA
cXEuY29tMB4XDTIyMDMyODExNTk1MFoXDTI0MDYzMDExNTk1MFowgZgxCzAJBgNV
BAYTAkNOMREwDwYDVQQIDAhaaGVKaWFuZzERMA8GA1UEBwwISGFuZ1pob3UxDTAL
BgNVBAoMBFpqdXQxHzAdBgNVBAsMFk15IE9yZ2FuaXphdGlvbmFsIFVuaXQxEjAQ
BgNVBAMMCW15ZGNsaWVudDEfMB0GCSqGSIb3DQEJARYQODY3NjI0NTUwQHFxLmNv
bTBZMBMGByqGSM49AgEGCCqGSM49AwEHA0IABJh7zCAvZ2XTUcOnzgLO7U0bbFFw
xLUdtJq6j9CUyEUwj6bwYVY9vBrZ31WouMdem2suJZwVIt3OxTfy5u3cadajggEr
MIIBJzAJBgNVHRMEAjAAMB0GA1UdDgQWBBQQNX6OVuwjml8MqycHzw8iVp4QvDCB
2AYDVR0jBIHQMIHNgBTwyzVTVdBguh/kAi1MnuPeEHDpsKGBnqSBmzCBmDELMAkG
A1UEBhMCQ04xETAPBgNVBAgMCFpoZUppYW5nMREwDwYDVQQHDAhIYW5nWmhvdTEN
MAsGA1UECgwEWmp1dDEfMB0GA1UECwwWTXkgT3JnYW5pemF0aW9uYWwgVW5pdDES
MBAGA1UEAwwJbXlkc2VydmVyMR8wHQYJKoZIhvcNAQkBFhA4Njc2MjQ1NTBAcXEu
Y29tghQ1CGkMzszaC7cPnepG4/zgXxjvTjATBgNVHSUEDDAKBggrBgEFBQcDAjAL
BgNVHQ8EBAMCB4AwCgYIKoZIzj0EAwIDSQAwRgIhAIwN9MIskeDaCSPAqb3sHok3
BHe5jiaepKrTF1zuYw26AiEAgD6yoIrXcgGL6OXXuMEO0V0Ik+VgEI0sz9SONYGg
ubo=
-----END CERTIFICATE-----
